; ModuleID = '12/599.c'
source_filename = "12/599.c"
target datalayout = "e-m:e-p270:32:32-p271:32:32-p272:64:64-i64:64-f80:128-n8:16:32:64-S128"
target triple = "x86_64-pc-linux-gnu"

@.str = private unnamed_addr constant [3 x i8] c"%d\00", align 1
@.str.1 = private unnamed_addr constant [4 x i8] c"%d\0A\00", align 1

; Function Attrs: noinline nounwind uwtable
define dso_local i32 @main() #0 {
  %1 = alloca i32, align 4
  %2 = alloca i32, align 4
  %3 = alloca i32, align 4
  %4 = alloca i32, align 4
  %5 = alloca [15 x i32], align 16
  %6 = alloca i32, align 4
  %7 = alloca i32, align 4
  %8 = alloca i32, align 4
  store i32 0, i32* %1, align 4
  store i32 0, i32* %7, align 4
  store i32 1, i32* %4, align 4
  br label %9

9:                                                ; preds = %73, %0
  %10 = getelementptr inbounds [15 x i32], [15 x i32]* %5, i64 0, i64 0
  %11 = call i32 (i8*, ...) @__isoc99_scanf(i8* getelementptr inbounds ([3 x i8], [3 x i8]* @.str, i64 0, i64 0), i32* %10)
  %12 = getelementptr inbounds [15 x i32], [15 x i32]* %5, i64 0, i64 0
  %13 = load i32, i32* %12, align 16
  %14 = icmp eq i32 %13, -1
  br i1 %14, label %15, label %16

15:                                               ; preds = %9
  br label %76

16:                                               ; preds = %9
  store i32 0, i32* %7, align 4
  store i32 1, i32* %3, align 4
  br label %17

17:                                               ; preds = %32, %16
  %18 = load i32, i32* %3, align 4
  %19 = icmp sle i32 %18, 15
  br i1 %19, label %20, label %35

20:                                               ; preds = %17
  %21 = load i32, i32* %3, align 4
  %22 = sext i32 %21 to i64
  %23 = getelementptr inbounds [15 x i32], [15 x i32]* %5, i64 0, i64 %22
  %24 = call i32 (i8*, ...) @__isoc99_scanf(i8* getelementptr inbounds ([3 x i8], [3 x i8]* @.str, i64 0, i64 0), i32* %23)
  %25 = load i32, i32* %3, align 4
  %26 = sext i32 %25 to i64
  %27 = getelementptr inbounds [15 x i32], [15 x i32]* %5, i64 0, i64 %26
  %28 = load i32, i32* %27, align 4
  %29 = icmp eq i32 %28, 0
  br i1 %29, label %30, label %31

30:                                               ; preds = %20
  br label %35

31:                                               ; preds = %20
  br label %32

32:                                               ; preds = %31
  %33 = load i32, i32* %3, align 4
  %34 = add nsw i32 %33, 1
  store i32 %34, i32* %3, align 4
  br label %17

35:                                               ; preds = %30, %17
  store i32 0, i32* %8, align 4
  br label %36

36:                                               ; preds = %64, %35
  %37 = load i32, i32* %8, align 4
  %38 = load i32, i32* %3, align 4
  %39 = icmp sle i32 %37, %38
  br i1 %39, label %40, label %67

40:                                               ; preds = %36
  store i32 0, i32* %6, align 4
  br label %41

41:                                               ; preds = %60, %40
  %42 = load i32, i32* %6, align 4
  %43 = load i32, i32* %3, align 4
  %44 = icmp sle i32 %42, %43
  br i1 %44, label %45, label %63

45:                                               ; preds = %41
  %46 = load i32, i32* %6, align 4
  %47 = sext i32 %46 to i64
  %48 = getelementptr inbounds [15 x i32], [15 x i32]* %5, i64 0, i64 %47
  %49 = load i32, i32* %48, align 4
  %50 = load i32, i32* %8, align 4
  %51 = sext i32 %50 to i64
  %52 = getelementptr inbounds [15 x i32], [15 x i32]* %5, i64 0, i64 %51
  %53 = load i32, i32* %52, align 4
  %54 = mul nsw i32 %53, 2
  %55 = icmp eq i32 %49, %54
  br i1 %55, label %56, label %59

56:                                               ; preds = %45
  %57 = load i32, i32* %7, align 4
  %58 = add nsw i32 %57, 1
  store i32 %58, i32* %7, align 4
  br label %59

59:                                               ; preds = %56, %45
  br label %60

60:                                               ; preds = %59
  %61 = load i32, i32* %6, align 4
  %62 = add nsw i32 %61, 1
  store i32 %62, i32* %6, align 4
  br label %41

63:                                               ; preds = %41
  br label %64

64:                                               ; preds = %63
  %65 = load i32, i32* %8, align 4
  %66 = add nsw i32 %65, 1
  store i32 %66, i32* %8, align 4
  br label %36

67:                                               ; preds = %36
  %68 = load i32, i32* %7, align 4
  %69 = sub nsw i32 %68, 1
  store i32 %69, i32* %7, align 4
  %70 = load i32, i32* %7, align 4
  %71 = call i32 (i8*, ...) @printf(i8* getelementptr inbounds ([4 x i8], [4 x i8]* @.str.1, i64 0, i64 0), i32 %70)
  br label %72

72:                                               ; preds = %67
  br label %73

73:                                               ; preds = %72
  %74 = load i32, i32* %4, align 4
  %75 = add nsw i32 %74, 1
  store i32 %75, i32* %4, align 4
  br label %9

76:                                               ; preds = %15
  ret i32 0
}

declare dso_local i32 @__isoc99_scanf(i8*, ...) #1

declare dso_local i32 @printf(i8*, ...) #1


!llvm.module.flags = !{!0}
!llvm.ident = !{!1}

!0 = !{i32 1, !"wchar_size", i32 4}
!1 = !{!"clang version 10.0.0-4ubuntu1 "}
